	.file	"sched_helper.c"
	.text
.Ltext0:
	.type	intr_enable, @function
intr_enable:
.LFB0:
	.file 1 "include/main/interrupt.h"
	.loc 1 68 0
	.cfi_startproc
	pushl	%ebp
	.cfi_def_cfa_offset 8
	.cfi_offset 5, -8
	movl	%esp, %ebp
	.cfi_def_cfa_register 5
	.loc 1 69 0
#APP
# 69 "include/main/interrupt.h" 1
	sti
# 0 "" 2
	.loc 1 70 0
#NO_APP
	nop
	popl	%ebp
	.cfi_restore 5
	.cfi_def_cfa 4, 4
	ret
	.cfi_endproc
.LFE0:
	.size	intr_enable, .-intr_enable
	.type	intr_disable, @function
intr_disable:
.LFB1:
	.loc 1 73 0
	.cfi_startproc
	pushl	%ebp
	.cfi_def_cfa_offset 8
	.cfi_offset 5, -8
	movl	%esp, %ebp
	.cfi_def_cfa_register 5
	.loc 1 74 0
#APP
# 74 "include/main/interrupt.h" 1
	cli
# 0 "" 2
	.loc 1 75 0
#NO_APP
	nop
	popl	%ebp
	.cfi_restore 5
	.cfi_def_cfa 4, 4
	ret
	.cfi_endproc
.LFE1:
	.size	intr_disable, .-intr_disable
	.type	intr_wait, @function
intr_wait:
.LFB2:
	.loc 1 82 0
	.cfi_startproc
	pushl	%ebp
	.cfi_def_cfa_offset 8
	.cfi_offset 5, -8
	movl	%esp, %ebp
	.cfi_def_cfa_register 5
	.loc 1 89 0
#APP
# 89 "include/main/interrupt.h" 1
	sti
	hlt
# 0 "" 2
	.loc 1 91 0
#NO_APP
	nop
	popl	%ebp
	.cfi_restore 5
	.cfi_def_cfa 4, 4
	ret
	.cfi_endproc
.LFE2:
	.size	intr_wait, .-intr_wait
	.type	intr_setipl, @function
intr_setipl:
.LFB3:
	.loc 1 98 0
	.cfi_startproc
	pushl	%ebp
	.cfi_def_cfa_offset 8
	.cfi_offset 5, -8
	movl	%esp, %ebp
	.cfi_def_cfa_register 5
	subl	$40, %esp
	movl	8(%ebp), %eax
	movb	%al, -12(%ebp)
	.loc 1 99 0
	movzbl	-12(%ebp), %eax
	movl	%eax, (%esp)
	call	apic_setipl
	.loc 1 100 0
	nop
	leave
	.cfi_restore 5
	.cfi_def_cfa 4, 4
	ret
	.cfi_endproc
.LFE3:
	.size	intr_setipl, .-intr_setipl
	.type	intr_getipl, @function
intr_getipl:
.LFB4:
	.loc 1 104 0
	.cfi_startproc
	pushl	%ebp
	.cfi_def_cfa_offset 8
	.cfi_offset 5, -8
	movl	%esp, %ebp
	.cfi_def_cfa_register 5
	subl	$8, %esp
	.loc 1 105 0
	call	apic_getipl
	.loc 1 106 0
	leave
	.cfi_restore 5
	.cfi_def_cfa 4, 4
	ret
	.cfi_endproc
.LFE4:
	.size	intr_getipl, .-intr_getipl
	.type	equals, @function
equals:
.LFB5:
	.file 2 "include/util/debug.h"
	.loc 2 235 0
	.cfi_startproc
	pushl	%ebp
	.cfi_def_cfa_offset 8
	.cfi_offset 5, -8
	movl	%esp, %ebp
	.cfi_def_cfa_register 5
	.loc 2 235 0
	movl	8(%ebp), %eax
	cmpl	12(%ebp), %eax
	sete	%al
	movzbl	%al, %eax
	popl	%ebp
	.cfi_restore 5
	.cfi_def_cfa 4, 4
	ret
	.cfi_endproc
.LFE5:
	.size	equals, .-equals
	.type	notequals, @function
notequals:
.LFB6:
	.loc 2 236 0
	.cfi_startproc
	pushl	%ebp
	.cfi_def_cfa_offset 8
	.cfi_offset 5, -8
	movl	%esp, %ebp
	.cfi_def_cfa_register 5
	.loc 2 236 0
	movl	8(%ebp), %eax
	cmpl	12(%ebp), %eax
	setne	%al
	movzbl	%al, %eax
	popl	%ebp
	.cfi_restore 5
	.cfi_def_cfa 4, 4
	ret
	.cfi_endproc
.LFE6:
	.size	notequals, .-notequals
	.type	lessthan, @function
lessthan:
.LFB7:
	.loc 2 237 0
	.cfi_startproc
	pushl	%ebp
	.cfi_def_cfa_offset 8
	.cfi_offset 5, -8
	movl	%esp, %ebp
	.cfi_def_cfa_register 5
	.loc 2 237 0
	movl	8(%ebp), %eax
	cmpl	12(%ebp), %eax
	setl	%al
	movzbl	%al, %eax
	popl	%ebp
	.cfi_restore 5
	.cfi_def_cfa 4, 4
	ret
	.cfi_endproc
.LFE7:
	.size	lessthan, .-lessthan
	.type	greaterthan, @function
greaterthan:
.LFB8:
	.loc 2 238 0
	.cfi_startproc
	pushl	%ebp
	.cfi_def_cfa_offset 8
	.cfi_offset 5, -8
	movl	%esp, %ebp
	.cfi_def_cfa_register 5
	.loc 2 238 0
	movl	8(%ebp), %eax
	cmpl	12(%ebp), %eax
	setg	%al
	movzbl	%al, %eax
	popl	%ebp
	.cfi_restore 5
	.cfi_def_cfa 4, 4
	ret
	.cfi_endproc
.LFE8:
	.size	greaterthan, .-greaterthan
	.type	lessthaneq, @function
lessthaneq:
.LFB9:
	.loc 2 239 0
	.cfi_startproc
	pushl	%ebp
	.cfi_def_cfa_offset 8
	.cfi_offset 5, -8
	movl	%esp, %ebp
	.cfi_def_cfa_register 5
	.loc 2 239 0
	movl	8(%ebp), %eax
	cmpl	12(%ebp), %eax
	setle	%al
	movzbl	%al, %eax
	popl	%ebp
	.cfi_restore 5
	.cfi_def_cfa 4, 4
	ret
	.cfi_endproc
.LFE9:
	.size	lessthaneq, .-lessthaneq
	.type	greaterthaneq, @function
greaterthaneq:
.LFB10:
	.loc 2 240 0
	.cfi_startproc
	pushl	%ebp
	.cfi_def_cfa_offset 8
	.cfi_offset 5, -8
	movl	%esp, %ebp
	.cfi_def_cfa_register 5
	.loc 2 240 0
	movl	8(%ebp), %eax
	cmpl	12(%ebp), %eax
	setge	%al
	movzbl	%al, %eax
	popl	%ebp
	.cfi_restore 5
	.cfi_def_cfa 4, 4
	ret
	.cfi_endproc
.LFE10:
	.size	greaterthaneq, .-greaterthaneq
	.section	.rodata
.LC0:
	.string	"proc/sched_helper.c"
.LC1:
	.string	"PROCS: sched_sleep_on"
	.align 4
.LC2:
	.string	"Not yet implemented: %s, file %s, line %d\n"
	.text
	.globl	sched_sleep_on
	.type	sched_sleep_on, @function
sched_sleep_on:
.LFB11:
	.file 3 "proc/sched_helper.c"
	.loc 3 42 0
	.cfi_startproc
	pushl	%ebp
	.cfi_def_cfa_offset 8
	.cfi_offset 5, -8
	movl	%esp, %ebp
	.cfi_def_cfa_register 5
	subl	$24, %esp
	.loc 3 43 0
	movl	$43, 12(%esp)
	movl	$.LC0, 8(%esp)
	movl	$.LC1, 4(%esp)
	movl	$.LC2, (%esp)
	call	dbg_print
	.loc 3 44 0
	nop
	leave
	.cfi_restore 5
	.cfi_def_cfa 4, 4
	ret
	.cfi_endproc
.LFE11:
	.size	sched_sleep_on, .-sched_sleep_on
	.section	.rodata
.LC3:
	.string	"PROCS: sched_wakeup_on"
	.text
	.globl	sched_wakeup_on
	.type	sched_wakeup_on, @function
sched_wakeup_on:
.LFB12:
	.loc 3 48 0
	.cfi_startproc
	pushl	%ebp
	.cfi_def_cfa_offset 8
	.cfi_offset 5, -8
	movl	%esp, %ebp
	.cfi_def_cfa_register 5
	subl	$24, %esp
	.loc 3 49 0
	movl	$49, 12(%esp)
	movl	$.LC0, 8(%esp)
	movl	$.LC3, 4(%esp)
	movl	$.LC2, (%esp)
	call	dbg_print
	.loc 3 50 0
	movl	$0, %eax
	.loc 3 51 0
	leave
	.cfi_restore 5
	.cfi_def_cfa 4, 4
	ret
	.cfi_endproc
.LFE12:
	.size	sched_wakeup_on, .-sched_wakeup_on
	.section	.rodata
.LC4:
	.string	"PROCS: sched_broadcast_on"
	.text
	.globl	sched_broadcast_on
	.type	sched_broadcast_on, @function
sched_broadcast_on:
.LFB13:
	.loc 3 55 0
	.cfi_startproc
	pushl	%ebp
	.cfi_def_cfa_offset 8
	.cfi_offset 5, -8
	movl	%esp, %ebp
	.cfi_def_cfa_register 5
	subl	$24, %esp
	.loc 3 56 0
	movl	$56, 12(%esp)
	movl	$.LC0, 8(%esp)
	movl	$.LC4, 4(%esp)
	movl	$.LC2, (%esp)
	call	dbg_print
	.loc 3 57 0
	nop
	leave
	.cfi_restore 5
	.cfi_def_cfa 4, 4
	ret
	.cfi_endproc
.LFE13:
	.size	sched_broadcast_on, .-sched_broadcast_on
.Letext0:
	.file 4 "include/types.h"
	.file 5 "include/util/list.h"
	.file 6 "include/proc/sched.h"
	.file 7 "include/mm/pagetable.h"
	.file 8 "include/proc/context.h"
	.file 9 "include/proc/kthread.h"
	.file 10 "include/proc/proc.h"
	.file 11 "include/vm/vmmap.h"
	.section	.note.GNU-stack,"",@progbits
